target datalayout = "e-m:e-p270:32:32-p271:32:32-p272:64:64-i64:64-i128:128-f80:128-n8:16:32:64-S128"
target triple = "x86_64-pc-linux-gnu"

%struct.SDL_Window = type { i32, ptr, ptr, i32, i32, i32, i32, i32, i32, i32, i32, float, float, i32, i32, i64, i64, float, i8, i8, i32, i32, %struct.SDL_Rect, %struct.SDL_Rect, %struct.SDL_Rect, i8, i8, i8, %struct.SDL_DisplayMode, %struct.SDL_DisplayMode, %struct.SDL_HDROutputProperties, float, ptr, i8, i8, i8, i8, i8, i8, i8, i8, i8, i32, i32, i32, i32, %struct.SDL_Rect, i32, i8, %struct.SDL_Rect, i32, %struct.SDL_Rect, ptr, ptr, i32, float, i32, i32, ptr, ptr, ptr, ptr, ptr, ptr, ptr, ptr, ptr }
%struct.SDL_DisplayMode = type { i32, i32, i32, i32, float, float, i32, i32, ptr }
%struct.SDL_HDROutputProperties = type { float, float }
%struct.SDL_Rect = type { i32, i32, i32, i32 }

@.str.25 = private unnamed_addr constant [57 x i8] c"wayland: focus can only be toggled on popup menu windows\00", align 1

; Function Attrs: nounwind uwtable
define internal void @Wayland_SetKeyboardFocus(ptr noundef %0, i1 noundef zeroext %1) #0 {
  %3 = alloca ptr, align 8
  %4 = alloca i8, align 1
  %5 = alloca ptr, align 8
  store ptr %0, ptr %3, align 8
  %6 = zext i1 %1 to i8
  store i8 %6, ptr %4, align 1
  call void @llvm.lifetime.start.p0(i64 8, ptr %5) #10
  %7 = load ptr, ptr %3, align 8
  store ptr %7, ptr %5, align 8
  br label %8

8:                                                ; preds = %14, %2
  %9 = load ptr, ptr %5, align 8
  %10 = getelementptr inbounds nuw %struct.SDL_Window, ptr %9, i32 0, i32 15
  %11 = load i64, ptr %10, align 8
  %12 = and i64 %11, 786432
  %13 = icmp ne i64 %12, 0
  br i1 %13, label %14, label %18

14:                                               ; preds = %8
  %15 = load ptr, ptr %5, align 8
  %16 = getelementptr inbounds nuw %struct.SDL_Window, ptr %15, i32 0, i32 63
  %17 = load ptr, ptr %16, align 8
  store ptr %17, ptr %5, align 8
  br label %8, !llvm.loop !10

18:                                               ; preds = %8
  %19 = load ptr, ptr %3, align 8
  %20 = load ptr, ptr %5, align 8
  %21 = getelementptr inbounds nuw %struct.SDL_Window, ptr %20, i32 0, i32 60
  store ptr %19, ptr %21, align 8
  %22 = load i8, ptr %4, align 1, !range !5, !noundef !6
  %23 = trunc i8 %22 to i1
  br i1 %23, label %24, label %37

24:                                               ; preds = %18
  %25 = load ptr, ptr %3, align 8
  %26 = getelementptr inbounds nuw %struct.SDL_Window, ptr %25, i32 0, i32 34
  %27 = load i8, ptr %26, align 1, !range !5, !noundef !6
  %28 = trunc i8 %27 to i1
  br i1 %28, label %37, label %29

29:                                               ; preds = %24
  %30 = load ptr, ptr %3, align 8
  %31 = getelementptr inbounds nuw %struct.SDL_Window, ptr %30, i32 0, i32 40
  %32 = load i8, ptr %31, align 1, !range !5, !noundef !6
  %33 = trunc i8 %32 to i1
  br i1 %33, label %37, label %34

34:                                               ; preds = %29
  %35 = load ptr, ptr %3, align 8
  %36 = call zeroext i1 @SDL_SetKeyboardFocus(ptr noundef %35)
  br label %37

37:                                               ; preds = %34, %29, %24, %18
  call void @llvm.lifetime.end.p0(i64 8, ptr %5) #10
  ret void
}

; Function Attrs: nounwind uwtable
define hidden zeroext i1 @Wayland_SetWindowFocusable(ptr noundef %0, ptr noundef %1, i1 noundef zeroext %2) #0 {
  %4 = alloca i1, align 1
  %5 = alloca ptr, align 8
  %6 = alloca ptr, align 8
  %7 = alloca i8, align 1
  %8 = alloca ptr, align 8
  %9 = alloca i8, align 1
  store ptr %0, ptr %5, align 8
  store ptr %1, ptr %6, align 8
  %10 = zext i1 %2 to i8
  store i8 %10, ptr %7, align 1
  %11 = load ptr, ptr %6, align 8
  %12 = getelementptr inbounds nuw %struct.SDL_Window, ptr %11, i32 0, i32 15
  %13 = load i64, ptr %12, align 8
  %14 = and i64 %13, 524288
  %15 = icmp ne i64 %14, 0
  br i1 %15, label %16, label %50

16:                                               ; preds = %3
  %17 = load ptr, ptr %6, align 8
  %18 = getelementptr inbounds nuw %struct.SDL_Window, ptr %17, i32 0, i32 15
  %19 = load i64, ptr %18, align 8
  %20 = and i64 %19, 8
  %21 = icmp ne i64 %20, 0
  br i1 %21, label %49, label %22

22:                                               ; preds = %16
  %23 = load i8, ptr %7, align 1, !range !5, !noundef !6
  %24 = trunc i8 %23 to i1
  br i1 %24, label %38, label %25

25:                                               ; preds = %22
  %26 = load ptr, ptr %6, align 8
  %27 = getelementptr inbounds nuw %struct.SDL_Window, ptr %26, i32 0, i32 15
  %28 = load i64, ptr %27, align 8
  %29 = and i64 %28, 512
  %30 = icmp ne i64 %29, 0
  br i1 %30, label %31, label %38

31:                                               ; preds = %25
  call void @llvm.lifetime.start.p0(i64 8, ptr %8) #10
  call void @llvm.lifetime.start.p0(i64 1, ptr %9) #10
  %32 = load ptr, ptr %6, align 8
  %33 = call zeroext i1 @SDL_ShouldRelinquishPopupFocus(ptr noundef %32, ptr noundef %8)
  %34 = zext i1 %33 to i8
  store i8 %34, ptr %9, align 1
  %35 = load ptr, ptr %8, align 8
  %36 = load i8, ptr %9, align 1, !range !5, !noundef !6
  %37 = trunc i8 %36 to i1
  call void @Wayland_SetKeyboardFocus(ptr noundef %35, i1 noundef zeroext %37)
  call void @llvm.lifetime.end.p0(i64 1, ptr %9) #10
  call void @llvm.lifetime.end.p0(i64 8, ptr %8) #10
  br label %48

38:                                               ; preds = %25, %22
  %39 = load i8, ptr %7, align 1, !range !5, !noundef !6
  %40 = trunc i8 %39 to i1
  br i1 %40, label %41, label %47

41:                                               ; preds = %38
  %42 = load ptr, ptr %6, align 8
  %43 = call zeroext i1 @SDL_ShouldFocusPopup(ptr noundef %42)
  br i1 %43, label %44, label %46

44:                                               ; preds = %41
  %45 = load ptr, ptr %6, align 8
  call void @Wayland_SetKeyboardFocus(ptr noundef %45, i1 noundef zeroext true)
  br label %46

46:                                               ; preds = %44, %41
  br label %47

47:                                               ; preds = %46, %38
  br label %48

48:                                               ; preds = %47, %31
  br label %49

49:                                               ; preds = %48, %16
  store i1 true, ptr %4, align 1
  br label %52

50:                                               ; preds = %3
  %51 = call zeroext i1 (ptr, ...) @SDL_SetError_REAL(ptr noundef @.str.25)
  store i1 %51, ptr %4, align 1
  br label %52

52:                                               ; preds = %50, %49
  %53 = load i1, ptr %4, align 1
  ret i1 %53
}