; Function Attrs: nounwind uwtable
define hidden zeroext i1 @Wayland_SetWindowFocusable(ptr noundef readnone captures(none) %0, ptr noundef %1, i1 noundef zeroext %2) local_unnamed_addr #0 {
  %4 = alloca ptr, align 8
  %5 = getelementptr inbounds nuw i8, ptr %1, i64 72
  %6 = load i64, ptr %5, align 8
  %7 = and i64 %6, 524288
  %.not = icmp eq i64 %7, 0
  br i1 %.not, label %55, label %8

8:                                                ; preds = %3
  %9 = and i64 %6, 8
  %.not9 = icmp eq i64 %9, 0
  br i1 %.not9, label %10, label %Wayland_SetKeyboardFocus.exit17

10:                                               ; preds = %8
  %11 = and i64 %6, 512
  %.not10 = icmp eq i64 %11, 0
  %or.cond = or i1 %2, %.not10
  br i1 %or.cond, label %34, label %12

12:                                               ; preds = %10
  call void @llvm.lifetime.start.p0(i64 8, ptr nonnull %4) #15
  %13 = call zeroext i1 @SDL_ShouldRelinquishPopupFocus(ptr noundef nonnull %1, ptr noundef nonnull %4) #15
  %14 = load ptr, ptr %4, align 8
  %15 = getelementptr inbounds nuw i8, ptr %14, i64 72
  %16 = load i64, ptr %15, align 8
  %17 = and i64 %16, 786432
  %.not8.i = icmp eq i64 %17, 0
  br i1 %.not8.i, label %._crit_edge.i, label %.lr.ph.i

.lr.ph.i:                                         ; preds = %12, %.lr.ph.i
  %.09.i = phi ptr [ %19, %.lr.ph.i ], [ %14, %12 ]
  %18 = getelementptr inbounds nuw i8, ptr %.09.i, i64 424
  %19 = load ptr, ptr %18, align 8
  %20 = getelementptr inbounds nuw i8, ptr %19, i64 72
  %21 = load i64, ptr %20, align 8
  %22 = and i64 %21, 786432
  %.not.i = icmp eq i64 %22, 0
  br i1 %.not.i, label %._crit_edge.i, label %.lr.ph.i, !llvm.loop !9

._crit_edge.i:                                    ; preds = %.lr.ph.i, %12
  %.0.lcssa.i = phi ptr [ %14, %12 ], [ %19, %.lr.ph.i ]
  %23 = getelementptr inbounds nuw i8, ptr %.0.lcssa.i, i64 400
  store ptr %14, ptr %23, align 8
  br i1 %13, label %24, label %Wayland_SetKeyboardFocus.exit

24:                                               ; preds = %._crit_edge.i
  %25 = getelementptr inbounds nuw i8, ptr %14, i64 265
  %26 = load i8, ptr %25, align 1, !range !5, !noundef !6
  %27 = trunc nuw i8 %26 to i1
  br i1 %27, label %Wayland_SetKeyboardFocus.exit, label %28

28:                                               ; preds = %24
  %29 = getelementptr inbounds nuw i8, ptr %14, i64 271
  %30 = load i8, ptr %29, align 1, !range !5, !noundef !6
  %31 = trunc nuw i8 %30 to i1
  br i1 %31, label %Wayland_SetKeyboardFocus.exit, label %32

32:                                               ; preds = %28
  %33 = call zeroext i1 @SDL_SetKeyboardFocus(ptr noundef nonnull %14) #15
  br label %Wayland_SetKeyboardFocus.exit

Wayland_SetKeyboardFocus.exit:                    ; preds = %._crit_edge.i, %24, %28, %32
  call void @llvm.lifetime.end.p0(i64 8, ptr nonnull %4) #15
  br label %Wayland_SetKeyboardFocus.exit17

34:                                               ; preds = %10
  br i1 %2, label %35, label %Wayland_SetKeyboardFocus.exit17

35:                                               ; preds = %34
  %36 = tail call zeroext i1 @SDL_ShouldFocusPopup(ptr noundef nonnull %1) #15
  br i1 %36, label %37, label %Wayland_SetKeyboardFocus.exit17

37:                                               ; preds = %35
  %38 = load i64, ptr %5, align 8
  %39 = and i64 %38, 786432
  %.not8.i11 = icmp eq i64 %39, 0
  br i1 %.not8.i11, label %._crit_edge.i15, label %.lr.ph.i12

.lr.ph.i12:                                       ; preds = %37, %.lr.ph.i12
  %.09.i13 = phi ptr [ %41, %.lr.ph.i12 ], [ %1, %37 ]
  %40 = getelementptr inbounds nuw i8, ptr %.09.i13, i64 424
  %41 = load ptr, ptr %40, align 8
  %42 = getelementptr inbounds nuw i8, ptr %41, i64 72
  %43 = load i64, ptr %42, align 8
  %44 = and i64 %43, 786432
  %.not.i14 = icmp eq i64 %44, 0
  br i1 %.not.i14, label %._crit_edge.i15, label %.lr.ph.i12, !llvm.loop !9

._crit_edge.i15:                                  ; preds = %.lr.ph.i12, %37
  %.0.lcssa.i16 = phi ptr [ %1, %37 ], [ %41, %.lr.ph.i12 ]
  %45 = getelementptr inbounds nuw i8, ptr %.0.lcssa.i16, i64 400
  store ptr %1, ptr %45, align 8
  %46 = getelementptr inbounds nuw i8, ptr %1, i64 265
  %47 = load i8, ptr %46, align 1, !range !5, !noundef !6
  %48 = trunc nuw i8 %47 to i1
  br i1 %48, label %Wayland_SetKeyboardFocus.exit17, label %49

49:                                               ; preds = %._crit_edge.i15
  %50 = getelementptr inbounds nuw i8, ptr %1, i64 271
  %51 = load i8, ptr %50, align 1, !range !5, !noundef !6
  %52 = trunc nuw i8 %51 to i1
  br i1 %52, label %Wayland_SetKeyboardFocus.exit17, label %53

53:                                               ; preds = %49
  %54 = tail call zeroext i1 @SDL_SetKeyboardFocus(ptr noundef nonnull %1) #15
  br label %Wayland_SetKeyboardFocus.exit17

55:                                               ; preds = %3
  %56 = tail call zeroext i1 (ptr, ...) @SDL_SetError_REAL(ptr noundef nonnull @.str.25) #15
  br label %Wayland_SetKeyboardFocus.exit17

Wayland_SetKeyboardFocus.exit17:                  ; preds = %53, %49, %._crit_edge.i15, %8, %34, %35, %Wayland_SetKeyboardFocus.exit, %55
  %.0 = phi i1 [ %56, %55 ], [ true, %Wayland_SetKeyboardFocus.exit ], [ true, %35 ], [ true, %34 ], [ true, %8 ], [ true, %._crit_edge.i15 ], [ true, %49 ], [ true, %53 ]
  ret i1 %.0
}